target datalayout = "e-m:e-p270:32:32-p271:32:32-p272:64:64-i64:64-i128:128-f80:128-n8:16:32:64-S128"
target triple = "x86_64-pc-linux-gnu"

%struct.ml_dsa_key_st = type { ptr, ptr, ptr, ptr, [32 x i8], [64 x i8], [32 x i8], ptr, ptr, ptr, i32, i32, %struct.vector_st, %struct.vector_st, %struct.vector_st, %struct.vector_st }
%struct.vector_st = type { ptr, i64 }
%struct.ml_dsa_params_st = type { ptr, i32, i32, i32, i32, i32, i64, i64, i32, i32, i32, i32, i64, i64, i64 }

; Function Attrs: nounwind uwtable
define i32 @ossl_ml_dsa_key_equal(ptr noundef %0, ptr noundef %1, i32 noundef %2) #0 {
  %4 = alloca i32, align 4
  %5 = alloca ptr, align 8
  %6 = alloca ptr, align 8
  %7 = alloca i32, align 4
  %8 = alloca i32, align 4
  %9 = alloca i32, align 4
  store ptr %0, ptr %5, align 8, !tbaa !3
  store ptr %1, ptr %6, align 8, !tbaa !3
  store i32 %2, ptr %7, align 4, !tbaa !21
  call void @llvm.lifetime.start.p0(i64 4, ptr %8) #7
  store i32 0, ptr %8, align 4, !tbaa !21
  %10 = load ptr, ptr %5, align 8, !tbaa !3
  %11 = getelementptr inbounds nuw %struct.ml_dsa_key_st, ptr %10, i32 0, i32 1
  %12 = load ptr, ptr %11, align 8, !tbaa !8
  %13 = load ptr, ptr %6, align 8, !tbaa !3
  %14 = getelementptr inbounds nuw %struct.ml_dsa_key_st, ptr %13, i32 0, i32 1
  %15 = load ptr, ptr %14, align 8, !tbaa !8
  %16 = icmp ne ptr %12, %15
  br i1 %16, label %17, label %18

17:                                               ; preds = %3
  store i32 0, ptr %4, align 4
  store i32 1, ptr %9, align 4
  br label %90

18:                                               ; preds = %3
  %19 = load i32, ptr %7, align 4, !tbaa !21
  %20 = and i32 %19, 3
  %21 = icmp ne i32 %20, 0
  br i1 %21, label %22, label %89

22:                                               ; preds = %18
  %23 = load i32, ptr %7, align 4, !tbaa !21
  %24 = and i32 %23, 2
  %25 = icmp ne i32 %24, 0
  br i1 %25, label %26, label %53

26:                                               ; preds = %22
  %27 = load ptr, ptr %5, align 8, !tbaa !3
  %28 = getelementptr inbounds nuw %struct.ml_dsa_key_st, ptr %27, i32 0, i32 7
  %29 = load ptr, ptr %28, align 8, !tbaa !24
  %30 = icmp ne ptr %29, null
  br i1 %30, label %31, label %52

31:                                               ; preds = %26
  %32 = load ptr, ptr %6, align 8, !tbaa !3
  %33 = getelementptr inbounds nuw %struct.ml_dsa_key_st, ptr %32, i32 0, i32 7
  %34 = load ptr, ptr %33, align 8, !tbaa !24
  %35 = icmp ne ptr %34, null
  br i1 %35, label %36, label %52

36:                                               ; preds = %31
  %37 = load ptr, ptr %5, align 8, !tbaa !3
  %38 = getelementptr inbounds nuw %struct.ml_dsa_key_st, ptr %37, i32 0, i32 7
  %39 = load ptr, ptr %38, align 8, !tbaa !24
  %40 = load ptr, ptr %6, align 8, !tbaa !3
  %41 = getelementptr inbounds nuw %struct.ml_dsa_key_st, ptr %40, i32 0, i32 7
  %42 = load ptr, ptr %41, align 8, !tbaa !24
  %43 = load ptr, ptr %5, align 8, !tbaa !3
  %44 = getelementptr inbounds nuw %struct.ml_dsa_key_st, ptr %43, i32 0, i32 1
  %45 = load ptr, ptr %44, align 8, !tbaa !8
  %46 = getelementptr inbounds nuw %struct.ml_dsa_params_st, ptr %45, i32 0, i32 13
  %47 = load i64, ptr %46, align 8, !tbaa !43
  %48 = call i32 @memcmp(ptr noundef %39, ptr noundef %42, i64 noundef %47) #8
  %49 = icmp ne i32 %48, 0
  br i1 %49, label %50, label %51

50:                                               ; preds = %36
  store i32 0, ptr %4, align 4
  store i32 1, ptr %9, align 4
  br label %90

51:                                               ; preds = %36
  store i32 1, ptr %8, align 4, !tbaa !21
  br label %52

52:                                               ; preds = %51, %31, %26
  br label %53

53:                                               ; preds = %52, %22
  %54 = load i32, ptr %8, align 4, !tbaa !21
  %55 = icmp ne i32 %54, 0
  br i1 %55, label %87, label %56

56:                                               ; preds = %53
  %57 = load i32, ptr %7, align 4, !tbaa !21
  %58 = and i32 %57, 1
  %59 = icmp ne i32 %58, 0
  br i1 %59, label %60, label %87

60:                                               ; preds = %56
  %61 = load ptr, ptr %5, align 8, !tbaa !3
  %62 = getelementptr inbounds nuw %struct.ml_dsa_key_st, ptr %61, i32 0, i32 8
  %63 = load ptr, ptr %62, align 8, !tbaa !25
  %64 = icmp ne ptr %63, null
  br i1 %64, label %65, label %86

65:                                               ; preds = %60
  %66 = load ptr, ptr %6, align 8, !tbaa !3
  %67 = getelementptr inbounds nuw %struct.ml_dsa_key_st, ptr %66, i32 0, i32 8
  %68 = load ptr, ptr %67, align 8, !tbaa !25
  %69 = icmp ne ptr %68, null
  br i1 %69, label %70, label %86

70:                                               ; preds = %65
  %71 = load ptr, ptr %5, align 8, !tbaa !3
  %72 = getelementptr inbounds nuw %struct.ml_dsa_key_st, ptr %71, i32 0, i32 8
  %73 = load ptr, ptr %72, align 8, !tbaa !25
  %74 = load ptr, ptr %6, align 8, !tbaa !3
  %75 = getelementptr inbounds nuw %struct.ml_dsa_key_st, ptr %74, i32 0, i32 8
  %76 = load ptr, ptr %75, align 8, !tbaa !25
  %77 = load ptr, ptr %5, align 8, !tbaa !3
  %78 = getelementptr inbounds nuw %struct.ml_dsa_key_st, ptr %77, i32 0, i32 1
  %79 = load ptr, ptr %78, align 8, !tbaa !8
  %80 = getelementptr inbounds nuw %struct.ml_dsa_params_st, ptr %79, i32 0, i32 12
  %81 = load i64, ptr %80, align 8, !tbaa !26
  %82 = call i32 @memcmp(ptr noundef %73, ptr noundef %76, i64 noundef %81) #8
  %83 = icmp ne i32 %82, 0
  br i1 %83, label %84, label %85

84:                                               ; preds = %70
  store i32 0, ptr %4, align 4
  store i32 1, ptr %9, align 4
  br label %90

85:                                               ; preds = %70
  store i32 1, ptr %8, align 4, !tbaa !21
  br label %86

86:                                               ; preds = %85, %65, %60
  br label %87

87:                                               ; preds = %86, %56, %53
  %88 = load i32, ptr %8, align 4, !tbaa !21
  store i32 %88, ptr %4, align 4
  store i32 1, ptr %9, align 4
  br label %90

89:                                               ; preds = %18
  store i32 1, ptr %4, align 4
  store i32 1, ptr %9, align 4
  br label %90

90:                                               ; preds = %89, %87, %84, %50, %17
  call void @llvm.lifetime.end.p0(i64 4, ptr %8) #7
  %91 = load i32, ptr %4, align 4
  ret i32 %91
}