; Function Attrs: mustprogress nofree nounwind willreturn memory(read, inaccessiblemem: none) uwtable
define range(i32 0, 2) i32 @ossl_ml_dsa_key_equal(ptr noundef readonly captures(none) %0, ptr noundef readonly captures(none) %1, i32 noundef %2) local_unnamed_addr #5 {
  %4 = getelementptr inbounds nuw i8, ptr %0, i64 8
  %5 = load ptr, ptr %4, align 8, !tbaa !3
  %6 = getelementptr inbounds nuw i8, ptr %1, i64 8
  %7 = load ptr, ptr %6, align 8, !tbaa !3
  %.not = icmp eq ptr %5, %7
  br i1 %.not, label %8, label %32

8:                                                ; preds = %3
  %9 = and i32 %2, 3
  %.not23 = icmp eq i32 %9, 0
  br i1 %.not23, label %32, label %10

10:                                               ; preds = %8
  %11 = and i32 %2, 2
  %.not24 = icmp eq i32 %11, 0
  br i1 %.not24, label %.critedge, label %12

12:                                               ; preds = %10
  %13 = getelementptr inbounds nuw i8, ptr %0, i64 160
  %14 = load ptr, ptr %13, align 8, !tbaa !19
  %.not25 = icmp eq ptr %14, null
  br i1 %.not25, label %.critedge, label %15

15:                                               ; preds = %12
  %16 = getelementptr inbounds nuw i8, ptr %1, i64 160
  %17 = load ptr, ptr %16, align 8, !tbaa !19
  %.not26 = icmp eq ptr %17, null
  br i1 %.not26, label %.critedge, label %18

18:                                               ; preds = %15
  %19 = getelementptr inbounds nuw i8, ptr %5, i64 72
  %20 = load i64, ptr %19, align 8, !tbaa !33
  %bcmp = tail call i32 @bcmp(ptr nonnull %14, ptr nonnull %17, i64 %20)
  %.not27 = icmp eq i32 %bcmp, 0
  br i1 %.not27, label %31, label %32

.critedge:                                        ; preds = %10, %12, %15
  %21 = and i32 %2, 1
  %.not29 = icmp eq i32 %21, 0
  br i1 %.not29, label %31, label %22

22:                                               ; preds = %.critedge
  %23 = getelementptr inbounds nuw i8, ptr %0, i64 168
  %24 = load ptr, ptr %23, align 8, !tbaa !20
  %.not30 = icmp eq ptr %24, null
  br i1 %.not30, label %31, label %25

25:                                               ; preds = %22
  %26 = getelementptr inbounds nuw i8, ptr %1, i64 168
  %27 = load ptr, ptr %26, align 8, !tbaa !20
  %.not31 = icmp eq ptr %27, null
  br i1 %.not31, label %31, label %28

28:                                               ; preds = %25
  %29 = getelementptr inbounds nuw i8, ptr %5, i64 64
  %30 = load i64, ptr %29, align 8, !tbaa !21
  %bcmp32 = tail call i32 @bcmp(ptr nonnull %24, ptr nonnull %27, i64 %30)
  %.not33 = icmp eq i32 %bcmp32, 0
  br i1 %.not33, label %31, label %32

31:                                               ; preds = %28, %18, %22, %25, %.critedge
  %.1 = phi i32 [ 0, %25 ], [ 0, %22 ], [ 0, %.critedge ], [ 1, %18 ], [ 1, %28 ]
  br label %32

32:                                               ; preds = %8, %28, %18, %3, %31
  %.017 = phi i32 [ %.1, %31 ], [ 0, %3 ], [ 0, %18 ], [ 0, %28 ], [ 1, %8 ]
  ret i32 %.017
}